#include <math.h>
#include <stdio.h>
#include <stdlib.h>
#include <string.h>

void main()
{
	int i,m,n,*a,*b;
	scanf("%d %d",&n,&m);
	a=(int*)malloc(n*sizeof(int));
	b=(int*)malloc(n*sizeof(int));
	for(i=0;i<n;i++) scanf("%d",a+i);
	for(i=0;i<n-m;i++)*(b+i)=*(a+i);
	for(i=0;i<m;i++)*(a+i)=*(a+n-m+i);
	for(i=0;i<n-m;i++)*(a+m+i)=*(b+i);
	for(i=0;i<n-1;i++)printf("%d ",*(a+i));printf("%d\n",*(a+i));
	free(a);free(b);
}
