; ModuleID = '52/1240.c'
source_filename = "52/1240.c"
target datalayout = "e-m:e-p270:32:32-p271:32:32-p272:64:64-i64:64-f80:128-n8:16:32:64-S128"
target triple = "x86_64-pc-linux-gnu"

@.str = private unnamed_addr constant [6 x i8] c"%d %d\00", align 1
@.str.1 = private unnamed_addr constant [3 x i8] c"%d\00", align 1
@.str.2 = private unnamed_addr constant [4 x i8] c"%d \00", align 1
@.str.3 = private unnamed_addr constant [4 x i8] c"%d\0A\00", align 1

; Function Attrs: noinline nounwind uwtable
define dso_local void @main() #0 {
  %1 = alloca i32, align 4
  %2 = alloca i32, align 4
  %3 = alloca i32, align 4
  %4 = alloca i32*, align 8
  %5 = alloca i32*, align 8
  %6 = call i32 (i8*, ...) @__isoc99_scanf(i8* getelementptr inbounds ([6 x i8], [6 x i8]* @.str, i64 0, i64 0), i32* %3, i32* %2)
  %7 = load i32, i32* %3, align 4
  %8 = sext i32 %7 to i64
  %9 = mul i64 %8, 4
  %10 = call noalias i8* @malloc(i64 %9) #3
  %11 = bitcast i8* %10 to i32*
  store i32* %11, i32** %4, align 8
  %12 = load i32, i32* %3, align 4
  %13 = sext i32 %12 to i64
  %14 = mul i64 %13, 4
  %15 = call noalias i8* @malloc(i64 %14) #3
  %16 = bitcast i8* %15 to i32*
  store i32* %16, i32** %5, align 8
  store i32 0, i32* %1, align 4
  br label %17

17:                                               ; preds = %27, %0
  %18 = load i32, i32* %1, align 4
  %19 = load i32, i32* %3, align 4
  %20 = icmp slt i32 %18, %19
  br i1 %20, label %21, label %30

21:                                               ; preds = %17
  %22 = load i32*, i32** %4, align 8
  %23 = load i32, i32* %1, align 4
  %24 = sext i32 %23 to i64
  %25 = getelementptr inbounds i32, i32* %22, i64 %24
  %26 = call i32 (i8*, ...) @__isoc99_scanf(i8* getelementptr inbounds ([3 x i8], [3 x i8]* @.str.1, i64 0, i64 0), i32* %25)
  br label %27

27:                                               ; preds = %21
  %28 = load i32, i32* %1, align 4
  %29 = add nsw i32 %28, 1
  store i32 %29, i32* %1, align 4
  br label %17

30:                                               ; preds = %17
  store i32 0, i32* %1, align 4
  br label %31

31:                                               ; preds = %47, %30
  %32 = load i32, i32* %1, align 4
  %33 = load i32, i32* %3, align 4
  %34 = load i32, i32* %2, align 4
  %35 = sub nsw i32 %33, %34
  %36 = icmp slt i32 %32, %35
  br i1 %36, label %37, label %50

37:                                               ; preds = %31
  %38 = load i32*, i32** %4, align 8
  %39 = load i32, i32* %1, align 4
  %40 = sext i32 %39 to i64
  %41 = getelementptr inbounds i32, i32* %38, i64 %40
  %42 = load i32, i32* %41, align 4
  %43 = load i32*, i32** %5, align 8
  %44 = load i32, i32* %1, align 4
  %45 = sext i32 %44 to i64
  %46 = getelementptr inbounds i32, i32* %43, i64 %45
  store i32 %42, i32* %46, align 4
  br label %47

47:                                               ; preds = %37
  %48 = load i32, i32* %1, align 4
  %49 = add nsw i32 %48, 1
  store i32 %49, i32* %1, align 4
  br label %31

50:                                               ; preds = %31
  store i32 0, i32* %1, align 4
  br label %51

51:                                               ; preds = %72, %50
  %52 = load i32, i32* %1, align 4
  %53 = load i32, i32* %2, align 4
  %54 = icmp slt i32 %52, %53
  br i1 %54, label %55, label %75

55:                                               ; preds = %51
  %56 = load i32*, i32** %4, align 8
  %57 = load i32, i32* %3, align 4
  %58 = sext i32 %57 to i64
  %59 = getelementptr inbounds i32, i32* %56, i64 %58
  %60 = load i32, i32* %2, align 4
  %61 = sext i32 %60 to i64
  %62 = sub i64 0, %61
  %63 = getelementptr inbounds i32, i32* %59, i64 %62
  %64 = load i32, i32* %1, align 4
  %65 = sext i32 %64 to i64
  %66 = getelementptr inbounds i32, i32* %63, i64 %65
  %67 = load i32, i32* %66, align 4
  %68 = load i32*, i32** %4, align 8
  %69 = load i32, i32* %1, align 4
  %70 = sext i32 %69 to i64
  %71 = getelementptr inbounds i32, i32* %68, i64 %70
  store i32 %67, i32* %71, align 4
  br label %72

72:                                               ; preds = %55
  %73 = load i32, i32* %1, align 4
  %74 = add nsw i32 %73, 1
  store i32 %74, i32* %1, align 4
  br label %51

75:                                               ; preds = %51
  store i32 0, i32* %1, align 4
  br label %76

76:                                               ; preds = %95, %75
  %77 = load i32, i32* %1, align 4
  %78 = load i32, i32* %3, align 4
  %79 = load i32, i32* %2, align 4
  %80 = sub nsw i32 %78, %79
  %81 = icmp slt i32 %77, %80
  br i1 %81, label %82, label %98

82:                                               ; preds = %76
  %83 = load i32*, i32** %5, align 8
  %84 = load i32, i32* %1, align 4
  %85 = sext i32 %84 to i64
  %86 = getelementptr inbounds i32, i32* %83, i64 %85
  %87 = load i32, i32* %86, align 4
  %88 = load i32*, i32** %4, align 8
  %89 = load i32, i32* %2, align 4
  %90 = sext i32 %89 to i64
  %91 = getelementptr inbounds i32, i32* %88, i64 %90
  %92 = load i32, i32* %1, align 4
  %93 = sext i32 %92 to i64
  %94 = getelementptr inbounds i32, i32* %91, i64 %93
  store i32 %87, i32* %94, align 4
  br label %95

95:                                               ; preds = %82
  %96 = load i32, i32* %1, align 4
  %97 = add nsw i32 %96, 1
  store i32 %97, i32* %1, align 4
  br label %76

98:                                               ; preds = %76
  store i32 0, i32* %1, align 4
  br label %99

99:                                               ; preds = %111, %98
  %100 = load i32, i32* %1, align 4
  %101 = load i32, i32* %3, align 4
  %102 = sub nsw i32 %101, 1
  %103 = icmp slt i32 %100, %102
  br i1 %103, label %104, label %114

104:                                              ; preds = %99
  %105 = load i32*, i32** %4, align 8
  %106 = load i32, i32* %1, align 4
  %107 = sext i32 %106 to i64
  %108 = getelementptr inbounds i32, i32* %105, i64 %107
  %109 = load i32, i32* %108, align 4
  %110 = call i32 (i8*, ...) @printf(i8* getelementptr inbounds ([4 x i8], [4 x i8]* @.str.2, i64 0, i64 0), i32 %109)
  br label %111

111:                                              ; preds = %104
  %112 = load i32, i32* %1, align 4
  %113 = add nsw i32 %112, 1
  store i32 %113, i32* %1, align 4
  br label %99

114:                                              ; preds = %99
  %115 = load i32*, i32** %4, align 8
  %116 = load i32, i32* %1, align 4
  %117 = sext i32 %116 to i64
  %118 = getelementptr inbounds i32, i32* %115, i64 %117
  %119 = load i32, i32* %118, align 4
  %120 = call i32 (i8*, ...) @printf(i8* getelementptr inbounds ([4 x i8], [4 x i8]* @.str.3, i64 0, i64 0), i32 %119)
  %121 = load i32*, i32** %4, align 8
  %122 = bitcast i32* %121 to i8*
  call void @free(i8* %122) #3
  %123 = load i32*, i32** %5, align 8
  %124 = bitcast i32* %123 to i8*
  call void @free(i8* %124) #3
  ret void
}

declare dso_local i32 @__isoc99_scanf(i8*, ...) #1

; Function Attrs: nounwind
declare dso_local noalias i8* @malloc(i64) #2

declare dso_local i32 @printf(i8*, ...) #1

; Function Attrs: nounwind
declare dso_local void @free(i8*) #2


!llvm.module.flags = !{!0}
!llvm.ident = !{!1}

!0 = !{i32 1, !"wchar_size", i32 4}
!1 = !{!"clang version 10.0.0-4ubuntu1 "}
